target datalayout = "e-m:e-p270:32:32-p271:32:32-p272:64:64-i64:64-i128:128-f80:128-n8:16:32:64-S128"
target triple = "x86_64-pc-linux-gnu"

; Function Attrs: nounwind uwtable
define internal zeroext i1 @in_range(ptr noundef %0, i32 noundef %1) #0 {
  %3 = alloca i1, align 1
  %4 = alloca ptr, align 8
  %5 = alloca i32, align 4
  %6 = alloca i32, align 4
  %7 = alloca i32, align 4
  store ptr %0, ptr %4, align 8, !tbaa !19
  store i32 %1, ptr %5, align 4, !tbaa !12
  call void @llvm.lifetime.start.p0(i64 4, ptr %6) #3
  store i32 0, ptr %6, align 4, !tbaa !12
  br label %8

8:                                                ; preds = %35, %2
  %9 = load ptr, ptr %4, align 8, !tbaa !19
  %10 = load i32, ptr %6, align 4, !tbaa !12
  %11 = sext i32 %10 to i64
  %12 = getelementptr inbounds i32, ptr %9, i64 %11
  %13 = load i32, ptr %12, align 4, !tbaa !12
  %14 = icmp ne i32 %13, -1
  br i1 %14, label %16, label %15

15:                                               ; preds = %8
  store i32 2, ptr %7, align 4
  br label %38

16:                                               ; preds = %8
  %17 = load ptr, ptr %4, align 8, !tbaa !19
  %18 = load i32, ptr %6, align 4, !tbaa !12
  %19 = sext i32 %18 to i64
  %20 = getelementptr inbounds i32, ptr %17, i64 %19
  %21 = load i32, ptr %20, align 4, !tbaa !12
  %22 = load i32, ptr %5, align 4, !tbaa !12
  %23 = icmp ule i32 %21, %22
  br i1 %23, label %24, label %34

24:                                               ; preds = %16
  %25 = load i32, ptr %5, align 4, !tbaa !12
  %26 = load ptr, ptr %4, align 8, !tbaa !19
  %27 = load i32, ptr %6, align 4, !tbaa !12
  %28 = add nsw i32 %27, 1
  %29 = sext i32 %28 to i64
  %30 = getelementptr inbounds i32, ptr %26, i64 %29
  %31 = load i32, ptr %30, align 4, !tbaa !12
  %32 = icmp ule i32 %25, %31
  br i1 %32, label %33, label %34

33:                                               ; preds = %24
  store i1 true, ptr %3, align 1
  store i32 1, ptr %7, align 4
  br label %38

34:                                               ; preds = %24, %16
  br label %35

35:                                               ; preds = %34
  %36 = load i32, ptr %6, align 4, !tbaa !12
  %37 = add nsw i32 %36, 2
  store i32 %37, ptr %6, align 4, !tbaa !12
  br label %8, !llvm.loop !21

38:                                               ; preds = %33, %15
  call void @llvm.lifetime.end.p0(i64 4, ptr %6) #3
  %39 = load i32, ptr %7, align 4
  switch i32 %39, label %43 [
    i32 2, label %40
    i32 1, label %41
  ]

40:                                               ; preds = %38
  store i1 false, ptr %3, align 1
  br label %41

41:                                               ; preds = %40, %38
  %42 = load i1, ptr %3, align 1
  ret i1 %42

43:                                               ; preds = %38
  unreachable
}

; Function Attrs: nounwind uwtable
define dso_local zeroext i1 @is_ident1(i32 noundef %0) #0 {
  %2 = alloca i32, align 4
  store i32 %0, ptr %2, align 4, !tbaa !12
  %3 = load i32, ptr %2, align 4, !tbaa !12
  %4 = call zeroext i1 @in_range(ptr noundef @is_ident1.range, i32 noundef %3)
  ret i1 %4
}