; Function Attrs: nofree norecurse nosync nounwind memory(read, argmem: none, inaccessiblemem: none) uwtable
define dso_local noundef zeroext i1 @is_ident1(i32 noundef %0) local_unnamed_addr #3 {
.lr.ph.i.preheader:
  br label %.lr.ph.i

.lr.ph.i:                                         ; preds = %.lr.ph.i.preheader, %6
  %indvars.iv.i = phi i64 [ %indvars.iv.next.i, %6 ], [ 0, %.lr.ph.i.preheader ]
  %1 = phi i32 [ %8, %6 ], [ 95, %.lr.ph.i.preheader ]
  %.not14.i = icmp ugt i32 %1, %0
  br i1 %.not14.i, label %6, label %2

2:                                                ; preds = %.lr.ph.i
  %3 = or disjoint i64 %indvars.iv.i, 1
  %4 = getelementptr inbounds nuw i32, ptr @is_ident1.range, i64 %3
  %5 = load i32, ptr %4, align 4, !tbaa !15
  %.not15.i = icmp ugt i32 %0, %5
  br i1 %.not15.i, label %6, label %in_range.exit

6:                                                ; preds = %2, %.lr.ph.i
  %indvars.iv.next.i = add nuw nsw i64 %indvars.iv.i, 2
  %7 = getelementptr inbounds nuw i32, ptr @is_ident1.range, i64 %indvars.iv.next.i
  %8 = load i32, ptr %7, align 8, !tbaa !15
  %.not.not.i = icmp eq i32 %8, -1
  br i1 %.not.not.i, label %in_range.exit, label %.lr.ph.i, !llvm.loop !17

in_range.exit:                                    ; preds = %2, %6
  %.not.lcssa.i.ph = phi i1 [ true, %2 ], [ false, %6 ]
  ret i1 %.not.lcssa.i.ph
}